; ModuleID = '23/1057.c'
source_filename = "23/1057.c"
target datalayout = "e-m:e-p270:32:32-p271:32:32-p272:64:64-i64:64-f80:128-n8:16:32:64-S128"
target triple = "x86_64-pc-linux-gnu"

@.str = private unnamed_addr constant [2 x i8] c" \00", align 1
@.str.1 = private unnamed_addr constant [3 x i8] c"%c\00", align 1
@.str.2 = private unnamed_addr constant [2 x i8] c"\0A\00", align 1

; Function Attrs: noinline nounwind uwtable
define dso_local void @main() #0 {
  %1 = alloca [101 x i8], align 16
  %2 = alloca i32, align 4
  %3 = alloca i32, align 4
  %4 = alloca i32, align 4
  %5 = alloca i32, align 4
  %6 = getelementptr inbounds [101 x i8], [101 x i8]* %1, i64 0, i64 0
  %7 = call i32 (i8*, ...) bitcast (i32 (...)* @gets to i32 (i8*, ...)*)(i8* %6)
  %8 = getelementptr inbounds [101 x i8], [101 x i8]* %1, i64 0, i64 0
  %9 = call i64 @strlen(i8* %8) #3
  %10 = sub i64 %9, 1
  %11 = trunc i64 %10 to i32
  store i32 %11, i32* %3, align 4
  br label %12

12:                                               ; preds = %24, %0
  %13 = load i32, i32* %3, align 4
  %14 = icmp sgt i32 %13, 0
  br i1 %14, label %15, label %22

15:                                               ; preds = %12
  %16 = load i32, i32* %3, align 4
  %17 = sext i32 %16 to i64
  %18 = getelementptr inbounds [101 x i8], [101 x i8]* %1, i64 0, i64 %17
  %19 = load i8, i8* %18, align 1
  %20 = sext i8 %19 to i32
  %21 = icmp eq i32 %20, 32
  br label %22

22:                                               ; preds = %15, %12
  %23 = phi i1 [ false, %12 ], [ %21, %15 ]
  br i1 %23, label %24, label %27

24:                                               ; preds = %22
  %25 = load i32, i32* %3, align 4
  %26 = add nsw i32 %25, -1
  store i32 %26, i32* %3, align 4
  br label %12

27:                                               ; preds = %22
  %28 = load i32, i32* %3, align 4
  %29 = icmp eq i32 %28, 0
  br i1 %29, label %30, label %40

30:                                               ; preds = %27
  %31 = load i32, i32* %3, align 4
  %32 = sext i32 %31 to i64
  %33 = getelementptr inbounds [101 x i8], [101 x i8]* %1, i64 0, i64 %32
  %34 = load i8, i8* %33, align 1
  %35 = sext i8 %34 to i32
  %36 = icmp eq i32 %35, 32
  br i1 %36, label %37, label %40

37:                                               ; preds = %30
  %38 = load i32, i32* %3, align 4
  %39 = add nsw i32 %38, -1
  store i32 %39, i32* %3, align 4
  br label %40

40:                                               ; preds = %37, %30, %27
  %41 = load i32, i32* %3, align 4
  %42 = sub nsw i32 %41, 1
  store i32 %42, i32* %2, align 4
  store i32 0, i32* %5, align 4
  br label %43

43:                                               ; preds = %114, %40
  %44 = load i32, i32* %2, align 4
  %45 = icmp sge i32 %44, 0
  br i1 %45, label %46, label %115

46:                                               ; preds = %43
  %47 = load i32, i32* %2, align 4
  %48 = sext i32 %47 to i64
  %49 = getelementptr inbounds [101 x i8], [101 x i8]* %1, i64 0, i64 %48
  %50 = load i8, i8* %49, align 1
  %51 = sext i8 %50 to i32
  %52 = icmp ne i32 %51, 32
  br i1 %52, label %53, label %56

53:                                               ; preds = %46
  %54 = load i32, i32* %2, align 4
  %55 = add nsw i32 %54, -1
  store i32 %55, i32* %2, align 4
  br label %114

56:                                               ; preds = %46
  %57 = load i32, i32* %5, align 4
  %58 = icmp ne i32 %57, 0
  br i1 %58, label %59, label %61

59:                                               ; preds = %56
  %60 = call i32 (i8*, ...) @printf(i8* getelementptr inbounds ([2 x i8], [2 x i8]* @.str, i64 0, i64 0))
  br label %61

61:                                               ; preds = %59, %56
  %62 = load i32, i32* %5, align 4
  %63 = add nsw i32 %62, 1
  store i32 %63, i32* %5, align 4
  %64 = load i32, i32* %2, align 4
  %65 = add nsw i32 %64, 1
  store i32 %65, i32* %4, align 4
  br label %66

66:                                               ; preds = %77, %61
  %67 = load i32, i32* %4, align 4
  %68 = load i32, i32* %3, align 4
  %69 = icmp sle i32 %67, %68
  br i1 %69, label %70, label %80

70:                                               ; preds = %66
  %71 = load i32, i32* %4, align 4
  %72 = sext i32 %71 to i64
  %73 = getelementptr inbounds [101 x i8], [101 x i8]* %1, i64 0, i64 %72
  %74 = load i8, i8* %73, align 1
  %75 = sext i8 %74 to i32
  %76 = call i32 (i8*, ...) @printf(i8* getelementptr inbounds ([3 x i8], [3 x i8]* @.str.1, i64 0, i64 0), i32 %75)
  br label %77

77:                                               ; preds = %70
  %78 = load i32, i32* %4, align 4
  %79 = add nsw i32 %78, 1
  store i32 %79, i32* %4, align 4
  br label %66

80:                                               ; preds = %66
  %81 = load i32, i32* %2, align 4
  %82 = sub nsw i32 %81, 1
  store i32 %82, i32* %3, align 4
  br label %83

83:                                               ; preds = %95, %80
  %84 = load i32, i32* %3, align 4
  %85 = icmp sgt i32 %84, 0
  br i1 %85, label %86, label %93

86:                                               ; preds = %83
  %87 = load i32, i32* %3, align 4
  %88 = sext i32 %87 to i64
  %89 = getelementptr inbounds [101 x i8], [101 x i8]* %1, i64 0, i64 %88
  %90 = load i8, i8* %89, align 1
  %91 = sext i8 %90 to i32
  %92 = icmp eq i32 %91, 32
  br label %93

93:                                               ; preds = %86, %83
  %94 = phi i1 [ false, %83 ], [ %92, %86 ]
  br i1 %94, label %95, label %98

95:                                               ; preds = %93
  %96 = load i32, i32* %3, align 4
  %97 = add nsw i32 %96, -1
  store i32 %97, i32* %3, align 4
  br label %83

98:                                               ; preds = %93
  %99 = load i32, i32* %3, align 4
  %100 = icmp eq i32 %99, 0
  br i1 %100, label %101, label %111

101:                                              ; preds = %98
  %102 = load i32, i32* %3, align 4
  %103 = sext i32 %102 to i64
  %104 = getelementptr inbounds [101 x i8], [101 x i8]* %1, i64 0, i64 %103
  %105 = load i8, i8* %104, align 1
  %106 = sext i8 %105 to i32
  %107 = icmp eq i32 %106, 32
  br i1 %107, label %108, label %111

108:                                              ; preds = %101
  %109 = load i32, i32* %3, align 4
  %110 = add nsw i32 %109, -1
  store i32 %110, i32* %3, align 4
  br label %111

111:                                              ; preds = %108, %101, %98
  %112 = load i32, i32* %3, align 4
  %113 = sub nsw i32 %112, 1
  store i32 %113, i32* %2, align 4
  br label %114

114:                                              ; preds = %111, %53
  br label %43

115:                                              ; preds = %43
  %116 = load i32, i32* %3, align 4
  %117 = icmp sge i32 %116, 0
  br i1 %117, label %118, label %141

118:                                              ; preds = %115
  %119 = load i32, i32* %5, align 4
  %120 = icmp ne i32 %119, 0
  br i1 %120, label %121, label %123

121:                                              ; preds = %118
  %122 = call i32 (i8*, ...) @printf(i8* getelementptr inbounds ([2 x i8], [2 x i8]* @.str, i64 0, i64 0))
  br label %123

123:                                              ; preds = %121, %118
  %124 = load i32, i32* %5, align 4
  %125 = add nsw i32 %124, 1
  store i32 %125, i32* %5, align 4
  store i32 0, i32* %4, align 4
  br label %126

126:                                              ; preds = %137, %123
  %127 = load i32, i32* %4, align 4
  %128 = load i32, i32* %3, align 4
  %129 = icmp sle i32 %127, %128
  br i1 %129, label %130, label %140

130:                                              ; preds = %126
  %131 = load i32, i32* %4, align 4
  %132 = sext i32 %131 to i64
  %133 = getelementptr inbounds [101 x i8], [101 x i8]* %1, i64 0, i64 %132
  %134 = load i8, i8* %133, align 1
  %135 = sext i8 %134 to i32
  %136 = call i32 (i8*, ...) @printf(i8* getelementptr inbounds ([3 x i8], [3 x i8]* @.str.1, i64 0, i64 0), i32 %135)
  br label %137

137:                                              ; preds = %130
  %138 = load i32, i32* %4, align 4
  %139 = add nsw i32 %138, 1
  store i32 %139, i32* %4, align 4
  br label %126

140:                                              ; preds = %126
  br label %141

141:                                              ; preds = %140, %115
  %142 = call i32 (i8*, ...) @printf(i8* getelementptr inbounds ([2 x i8], [2 x i8]* @.str.2, i64 0, i64 0))
  ret void
}

declare dso_local i32 @gets(...) #1

; Function Attrs: nounwind readonly
declare dso_local i64 @strlen(i8*) #2

declare dso_local i32 @printf(i8*, ...) #1


!llvm.module.flags = !{!0}
!llvm.ident = !{!1}

!0 = !{i32 1, !"wchar_size", i32 4}
!1 = !{!"clang version 10.0.0-4ubuntu1 "}
